target datalayout = "e-m:e-p270:32:32-p271:32:32-p272:64:64-i64:64-i128:128-f80:128-n8:16:32:64-S128"
target triple = "x86_64-pc-linux-gnu"

@.str.26 = private unnamed_addr constant [20 x i8] c"SDL.window.create.x\00", align 1
@.str.27 = private unnamed_addr constant [20 x i8] c"SDL.window.create.y\00", align 1
@.str.28 = private unnamed_addr constant [24 x i8] c"SDL.window.create.width\00", align 1
@.str.29 = private unnamed_addr constant [25 x i8] c"SDL.window.create.height\00", align 1
@.str.30 = private unnamed_addr constant [25 x i8] c"SDL.window.create.parent\00", align 1
@.str.40 = private unnamed_addr constant [24 x i8] c"SDL.window.create.flags\00", align 1
@.str.41 = private unnamed_addr constant [95 x i8] c"Popup windows must specify either the 'SDL_WINDOW_TOOLTIP' or the 'SDL_WINDOW_POPUP_MENU' flag\00", align 1

; Function Attrs: nounwind uwtable
define hidden ptr @SDL_CreatePopupWindow_REAL(ptr noundef %0, i32 noundef %1, i32 noundef %2, i32 noundef %3, i32 noundef %4, i64 noundef %5) #0 {
  %7 = alloca ptr, align 8
  %8 = alloca ptr, align 8
  %9 = alloca i32, align 4
  %10 = alloca i32, align 4
  %11 = alloca i32, align 4
  %12 = alloca i32, align 4
  %13 = alloca i64, align 8
  %14 = alloca ptr, align 8
  %15 = alloca i32, align 4
  %16 = alloca i32, align 4
  store ptr %0, ptr %8, align 8
  store i32 %1, ptr %9, align 4
  store i32 %2, ptr %10, align 4
  store i32 %3, ptr %11, align 4
  store i32 %4, ptr %12, align 4
  store i64 %5, ptr %13, align 8
  call void @llvm.lifetime.start.p0(i64 8, ptr %14) #10
  call void @llvm.lifetime.start.p0(i64 4, ptr %15) #10
  %17 = call i32 @SDL_CreateProperties_REAL()
  store i32 %17, ptr %15, align 4
  %18 = load i64, ptr %13, align 8
  %19 = and i64 %18, 786432
  %20 = icmp ne i64 %19, 0
  br i1 %20, label %23, label %21

21:                                               ; preds = %6
  %22 = call zeroext i1 (ptr, ...) @SDL_SetError_REAL(ptr noundef @.str.41)
  store ptr null, ptr %7, align 8
  store i32 1, ptr %16, align 4
  br label %50

23:                                               ; preds = %6
  %24 = load i32, ptr %15, align 4
  %25 = load ptr, ptr %8, align 8
  %26 = call zeroext i1 @SDL_SetPointerProperty_REAL(i32 noundef %24, ptr noundef @.str.30, ptr noundef %25)
  %27 = load i32, ptr %15, align 4
  %28 = load i32, ptr %9, align 4
  %29 = sext i32 %28 to i64
  %30 = call zeroext i1 @SDL_SetNumberProperty_REAL(i32 noundef %27, ptr noundef @.str.26, i64 noundef %29)
  %31 = load i32, ptr %15, align 4
  %32 = load i32, ptr %10, align 4
  %33 = sext i32 %32 to i64
  %34 = call zeroext i1 @SDL_SetNumberProperty_REAL(i32 noundef %31, ptr noundef @.str.27, i64 noundef %33)
  %35 = load i32, ptr %15, align 4
  %36 = load i32, ptr %11, align 4
  %37 = sext i32 %36 to i64
  %38 = call zeroext i1 @SDL_SetNumberProperty_REAL(i32 noundef %35, ptr noundef @.str.28, i64 noundef %37)
  %39 = load i32, ptr %15, align 4
  %40 = load i32, ptr %12, align 4
  %41 = sext i32 %40 to i64
  %42 = call zeroext i1 @SDL_SetNumberProperty_REAL(i32 noundef %39, ptr noundef @.str.29, i64 noundef %41)
  %43 = load i32, ptr %15, align 4
  %44 = load i64, ptr %13, align 8
  %45 = call zeroext i1 @SDL_SetNumberProperty_REAL(i32 noundef %43, ptr noundef @.str.40, i64 noundef %44)
  %46 = load i32, ptr %15, align 4
  %47 = call ptr @SDL_CreateWindowWithProperties_REAL(i32 noundef %46)
  store ptr %47, ptr %14, align 8
  %48 = load i32, ptr %15, align 4
  call void @SDL_DestroyProperties_REAL(i32 noundef %48)
  %49 = load ptr, ptr %14, align 8
  store ptr %49, ptr %7, align 8
  store i32 1, ptr %16, align 4
  br label %50

50:                                               ; preds = %23, %21
  call void @llvm.lifetime.end.p0(i64 4, ptr %15) #10
  call void @llvm.lifetime.end.p0(i64 8, ptr %14) #10
  %51 = load ptr, ptr %7, align 8
  ret ptr %51
}