; Function Attrs: nounwind uwtable
define hidden noundef ptr @SDL_CreatePopupWindow_REAL(ptr noundef %0, i32 noundef %1, i32 noundef %2, i32 noundef %3, i32 noundef %4, i64 noundef %5) local_unnamed_addr #0 {
  %7 = tail call i32 @SDL_CreateProperties_REAL() #19
  %8 = and i64 %5, 786432
  %.not = icmp eq i64 %8, 0
  br i1 %.not, label %9, label %11

9:                                                ; preds = %6
  %10 = tail call zeroext i1 (ptr, ...) @SDL_SetError_REAL(ptr noundef nonnull @.str.41) #19
  br label %23

11:                                               ; preds = %6
  %12 = tail call zeroext i1 @SDL_SetPointerProperty_REAL(i32 noundef %7, ptr noundef nonnull @.str.30, ptr noundef %0) #19
  %13 = sext i32 %1 to i64
  %14 = tail call zeroext i1 @SDL_SetNumberProperty_REAL(i32 noundef %7, ptr noundef nonnull @.str.26, i64 noundef %13) #19
  %15 = sext i32 %2 to i64
  %16 = tail call zeroext i1 @SDL_SetNumberProperty_REAL(i32 noundef %7, ptr noundef nonnull @.str.27, i64 noundef %15) #19
  %17 = sext i32 %3 to i64
  %18 = tail call zeroext i1 @SDL_SetNumberProperty_REAL(i32 noundef %7, ptr noundef nonnull @.str.28, i64 noundef %17) #19
  %19 = sext i32 %4 to i64
  %20 = tail call zeroext i1 @SDL_SetNumberProperty_REAL(i32 noundef %7, ptr noundef nonnull @.str.29, i64 noundef %19) #19
  %21 = tail call zeroext i1 @SDL_SetNumberProperty_REAL(i32 noundef %7, ptr noundef nonnull @.str.40, i64 noundef %5) #19
  %22 = tail call ptr @SDL_CreateWindowWithProperties_REAL(i32 noundef %7)
  tail call void @SDL_DestroyProperties_REAL(i32 noundef %7) #19
  br label %23

23:                                               ; preds = %11, %9
  %.0 = phi ptr [ %22, %11 ], [ null, %9 ]
  ret ptr %.0
}